; Function Attrs: mustprogress nofree norecurse nosync nounwind willreturn memory(argmem: read) uwtable
define noundef i64 @_ZNK6casadi10Polynomial6degreeEv(ptr nocapture noundef nonnull readonly align 8 dereferenceable(24) %0) local_unnamed_addr #4 align 2 {
  %2 = getelementptr inbounds i8, ptr %0, i64 8
  %3 = load ptr, ptr %2, align 8
  %4 = load ptr, ptr %0, align 8
  %5 = ptrtoint ptr %3 to i64
  %6 = ptrtoint ptr %4 to i64
  %7 = sub i64 %5, %6
  %8 = ashr exact i64 %7, 3
  %9 = add nsw i64 %8, -1
  ret i64 %9
}